target datalayout = "e-m:e-p270:32:32-p271:32:32-p272:64:64-i64:64-i128:128-f80:128-n8:16:32:64-S128"
target triple = "x86_64-unknown-linux-gnu"

%"class.icu_75::UVector32" = type { %"class.icu_75::UObject", i32, i32, i32, ptr }
%"class.icu_75::UObject" = type { ptr }

@_ZTVN6icu_759UVector32E = unnamed_addr constant { [5 x ptr] } { [5 x ptr] [ptr null, ptr @_ZTIN6icu_759UVector32E, ptr @_ZN6icu_759UVector32D1Ev, ptr @_ZN6icu_759UVector32D0Ev, ptr @_ZNK6icu_759UVector3217getDynamicClassIDEv] }, align 8
@_ZTVN6icu_757UObjectE = external unnamed_addr constant { [5 x ptr] }, align 8

; Function Attrs: mustprogress uwtable
define void @_ZN6icu_759UVector325_initEiR10UErrorCode(ptr noundef nonnull align 8 dereferenceable(32) %this, i32 noundef %initialCapacity, ptr noundef nonnull align 4 dereferenceable(4) %status) #1 align 2 {
entry:
  %this.addr = alloca ptr, align 8
  %initialCapacity.addr = alloca i32, align 4
  %status.addr = alloca ptr, align 8
  store ptr %this, ptr %this.addr, align 8
  store i32 %initialCapacity, ptr %initialCapacity.addr, align 4
  store ptr %status, ptr %status.addr, align 8
  %this1 = load ptr, ptr %this.addr, align 8
  %0 = load i32, ptr %initialCapacity.addr, align 4
  %cmp = icmp slt i32 %0, 1
  br i1 %cmp, label %if.then, label %if.end

if.then:                                          ; preds = %entry
  store i32 8, ptr %initialCapacity.addr, align 4
  br label %if.end

if.end:                                           ; preds = %if.then, %entry
  %maxCapacity = getelementptr inbounds %"class.icu_75::UVector32", ptr %this1, i32 0, i32 3
  %1 = load i32, ptr %maxCapacity, align 8
  %cmp2 = icmp sgt i32 %1, 0
  br i1 %cmp2, label %land.lhs.true, label %if.end7

land.lhs.true:                                    ; preds = %if.end
  %maxCapacity3 = getelementptr inbounds %"class.icu_75::UVector32", ptr %this1, i32 0, i32 3
  %2 = load i32, ptr %maxCapacity3, align 8
  %3 = load i32, ptr %initialCapacity.addr, align 4
  %cmp4 = icmp slt i32 %2, %3
  br i1 %cmp4, label %if.then5, label %if.end7

if.then5:                                         ; preds = %land.lhs.true
  %maxCapacity6 = getelementptr inbounds %"class.icu_75::UVector32", ptr %this1, i32 0, i32 3
  %4 = load i32, ptr %maxCapacity6, align 8
  store i32 %4, ptr %initialCapacity.addr, align 4
  br label %if.end7

if.end7:                                          ; preds = %if.then5, %land.lhs.true, %if.end
  %5 = load i32, ptr %initialCapacity.addr, align 4
  %cmp8 = icmp sgt i32 %5, 536870911
  br i1 %cmp8, label %if.then9, label %if.end11

if.then9:                                         ; preds = %if.end7
  %maxCapacity10 = getelementptr inbounds %"class.icu_75::UVector32", ptr %this1, i32 0, i32 3
  %6 = load i32, ptr %maxCapacity10, align 8
  %call = call i32 @uprv_min_75(i32 noundef 8, i32 noundef %6)
  store i32 %call, ptr %initialCapacity.addr, align 4
  br label %if.end11

if.end11:                                         ; preds = %if.then9, %if.end7
  %7 = load i32, ptr %initialCapacity.addr, align 4
  %conv = sext i32 %7 to i64
  %mul = mul i64 4, %conv
  %call12 = call noalias ptr @uprv_malloc_75(i64 noundef %mul) #8
  %elements = getelementptr inbounds %"class.icu_75::UVector32", ptr %this1, i32 0, i32 4
  store ptr %call12, ptr %elements, align 8
  %elements13 = getelementptr inbounds %"class.icu_75::UVector32", ptr %this1, i32 0, i32 4
  %8 = load ptr, ptr %elements13, align 8
  %cmp14 = icmp eq ptr %8, null
  br i1 %cmp14, label %if.then15, label %if.else

if.then15:                                        ; preds = %if.end11
  %9 = load ptr, ptr %status.addr, align 8
  store i32 7, ptr %9, align 4
  br label %if.end16

if.else:                                          ; preds = %if.end11
  %10 = load i32, ptr %initialCapacity.addr, align 4
  %capacity = getelementptr inbounds %"class.icu_75::UVector32", ptr %this1, i32 0, i32 2
  store i32 %10, ptr %capacity, align 4
  br label %if.end16

if.end16:                                         ; preds = %if.else, %if.then15
  ret void
}

; Function Attrs: mustprogress nounwind uwtable
define linkonce_odr void @_ZN6icu_757UObjectC2Ev(ptr noundef nonnull align 8 dereferenceable(8) %this) unnamed_addr #0 comdat align 2 {
entry:
  %this.addr = alloca ptr, align 8
  store ptr %this, ptr %this.addr, align 8
  %this1 = load ptr, ptr %this.addr, align 8
  store ptr getelementptr inbounds ({ [5 x ptr] }, ptr @_ZTVN6icu_757UObjectE, i32 0, i32 0, i32 2), ptr %this1, align 8
  ret void
}

; Function Attrs: mustprogress uwtable
define void @_ZN6icu_759UVector32C2ER10UErrorCode(ptr noundef nonnull align 8 dereferenceable(32) %this, ptr noundef nonnull align 4 dereferenceable(4) %status) unnamed_addr #1 align 2 personality ptr @__gxx_personality_v0 {
entry:
  %this.addr = alloca ptr, align 8
  %status.addr = alloca ptr, align 8
  %exn.slot = alloca ptr, align 8
  %ehselector.slot = alloca i32, align 4
  store ptr %this, ptr %this.addr, align 8
  store ptr %status, ptr %status.addr, align 8
  %this1 = load ptr, ptr %this.addr, align 8
  call void @_ZN6icu_757UObjectC2Ev(ptr noundef nonnull align 8 dereferenceable(8) %this1) #7
  store ptr getelementptr inbounds ({ [5 x ptr] }, ptr @_ZTVN6icu_759UVector32E, i32 0, i32 0, i32 2), ptr %this1, align 8
  %count = getelementptr inbounds %"class.icu_75::UVector32", ptr %this1, i32 0, i32 1
  store i32 0, ptr %count, align 8
  %capacity = getelementptr inbounds %"class.icu_75::UVector32", ptr %this1, i32 0, i32 2
  store i32 0, ptr %capacity, align 4
  %maxCapacity = getelementptr inbounds %"class.icu_75::UVector32", ptr %this1, i32 0, i32 3
  store i32 0, ptr %maxCapacity, align 8
  %elements = getelementptr inbounds %"class.icu_75::UVector32", ptr %this1, i32 0, i32 4
  store ptr null, ptr %elements, align 8
  %0 = load ptr, ptr %status.addr, align 8
  invoke void @_ZN6icu_759UVector325_initEiR10UErrorCode(ptr noundef nonnull align 8 dereferenceable(32) %this1, i32 noundef 8, ptr noundef nonnull align 4 dereferenceable(4) %0)
          to label %invoke.cont unwind label %lpad

invoke.cont:                                      ; preds = %entry
  ret void

lpad:                                             ; preds = %entry
  %1 = landingpad { ptr, i32 }
          cleanup
  %2 = extractvalue { ptr, i32 } %1, 0
  store ptr %2, ptr %exn.slot, align 8
  %3 = extractvalue { ptr, i32 } %1, 1
  store i32 %3, ptr %ehselector.slot, align 4
  call void @_ZN6icu_757UObjectD2Ev(ptr noundef nonnull align 8 dereferenceable(8) %this1) #7
  br label %eh.resume

eh.resume:                                        ; preds = %lpad
  %exn = load ptr, ptr %exn.slot, align 8
  %sel = load i32, ptr %ehselector.slot, align 4
  %lpad.val = insertvalue { ptr, i32 } poison, ptr %exn, 0
  %lpad.val2 = insertvalue { ptr, i32 } %lpad.val, i32 %sel, 1
  resume { ptr, i32 } %lpad.val2
}