; Function Attrs: mustprogress uwtable
define void @_ZN6icu_759UVector32C2ER10UErrorCode(ptr noundef nonnull align 8 dereferenceable(32) %this, ptr nocapture noundef nonnull writeonly align 4 dereferenceable(4) %status) unnamed_addr #1 align 2 personality ptr @__gxx_personality_v0 {
entry:
  store ptr getelementptr inbounds ({ [5 x ptr] }, ptr @_ZTVN6icu_759UVector32E, i64 0, i32 0, i64 2), ptr %this, align 8
  %count = getelementptr inbounds i8, ptr %this, i64 8
  store i32 0, ptr %count, align 8
  %capacity = getelementptr inbounds i8, ptr %this, i64 12
  store i32 0, ptr %capacity, align 4
  %maxCapacity = getelementptr inbounds i8, ptr %this, i64 16
  store i32 0, ptr %maxCapacity, align 8
  %elements = getelementptr inbounds i8, ptr %this, i64 24
  store ptr null, ptr %elements, align 8
  %call12.i1 = invoke noalias dereferenceable_or_null(32) ptr @uprv_malloc_75(i64 noundef 32) #13
          to label %call12.i.noexc unwind label %lpad

call12.i.noexc:                                   ; preds = %entry
  store ptr %call12.i1, ptr %elements, align 8
  %cmp14.i = icmp eq ptr %call12.i1, null
  br i1 %cmp14.i, label %if.then15.i, label %if.else.i

if.then15.i:                                      ; preds = %call12.i.noexc
  store i32 7, ptr %status, align 4
  br label %invoke.cont

if.else.i:                                        ; preds = %call12.i.noexc
  store i32 8, ptr %capacity, align 4
  br label %invoke.cont

invoke.cont:                                      ; preds = %if.else.i, %if.then15.i
  ret void

lpad:                                             ; preds = %entry
  %0 = landingpad { ptr, i32 }
          cleanup
  tail call void @_ZN6icu_757UObjectD2Ev(ptr noundef nonnull align 8 dereferenceable(8) %this) #14
  resume { ptr, i32 } %0
}